target datalayout = "e-m:e-p270:32:32-p271:32:32-p272:64:64-i64:64-i128:128-f80:128-n8:16:32:64-S128"
target triple = "x86_64-pc-linux-gnu"

%struct.FunctionCallInfoBaseData = type { ptr, ptr, ptr, i32, i8, i16, [0 x %struct.NullableDatum] }
%struct.NullableDatum = type { i64, i8 }
%struct.nameData = type { [64 x i8] }

@.str.1 = private unnamed_addr constant [6 x i8] c"acl.c\00", align 1
@.str.29 = private unnamed_addr constant [23 x i8] c"\22%s\22 is not a sequence\00", align 1
@__func__.has_sequence_privilege_name_name = private unnamed_addr constant [33 x i8] c"has_sequence_privilege_name_name\00", align 1
@.str.31 = private unnamed_addr constant [25 x i8] c"role \22%s\22 does not exist\00", align 1
@__func__.get_role_oid = private unnamed_addr constant [13 x i8] c"get_role_oid\00", align 1
@.str.32 = private unnamed_addr constant [7 x i8] c"public\00", align 1

; Function Attrs: inlinehint nounwind uwtable
define internal i64 @PointerGetDatum(ptr noundef %0) #5 {
  %2 = alloca ptr, align 8
  store ptr %0, ptr %2, align 8
  %3 = load ptr, ptr %2, align 8
  %4 = ptrtoint ptr %3 to i64
  ret i64 %4
}

; Function Attrs: inlinehint nounwind uwtable
define internal i64 @CStringGetDatum(ptr noundef %0) #5 {
  %2 = alloca ptr, align 8
  store ptr %0, ptr %2, align 8
  %3 = load ptr, ptr %2, align 8
  %4 = call i64 @PointerGetDatum(ptr noundef %3)
  ret i64 %4
}

; Function Attrs: nounwind uwtable
define dso_local i32 @get_role_oid(ptr noundef %0, i1 noundef zeroext %1) #0 {
  %3 = alloca ptr, align 8
  %4 = alloca i8, align 1
  %5 = alloca i32, align 4
  store ptr %0, ptr %3, align 8
  %6 = zext i1 %1 to i8
  store i8 %6, ptr %4, align 1
  call void @llvm.lifetime.start.p0(i64 4, ptr %5) #9
  %7 = load ptr, ptr %3, align 8
  %8 = call i64 @CStringGetDatum(ptr noundef %7)
  %9 = call i32 @GetSysCacheOid(i32 noundef 10, i16 noundef signext 1, i64 noundef %8, i64 noundef 0, i64 noundef 0, i64 noundef 0)
  store i32 %9, ptr %5, align 4
  %10 = load i32, ptr %5, align 4
  %11 = icmp ne i32 %10, 0
  br i1 %11, label %28, label %12

12:                                               ; preds = %2
  %13 = load i8, ptr %4, align 1, !range !12, !noundef !13
  %14 = trunc i8 %13 to i1
  br i1 %14, label %28, label %15

15:                                               ; preds = %12
  br label %16

16:                                               ; preds = %15
  br i1 true, label %17, label %19

17:                                               ; preds = %16
  %18 = call zeroext i1 @errstart_cold(i32 noundef 21, ptr noundef null) #10
  br i1 %18, label %21, label %25

19:                                               ; preds = %16
  %20 = call zeroext i1 @errstart(i32 noundef 21, ptr noundef null)
  br i1 %20, label %21, label %25

21:                                               ; preds = %19, %17
  %22 = call i32 @errcode(i32 noundef 67137668)
  %23 = load ptr, ptr %3, align 8
  %24 = call i32 (ptr, ...) @errmsg(ptr noundef @.str.31, ptr noundef %23)
  call void @errfinish(ptr noundef @.str.1, i32 noundef 5563, ptr noundef @__func__.get_role_oid)
  br label %25

25:                                               ; preds = %21, %19, %17
  unreachable

26:                                               ; No predecessors!
  br label %27

27:                                               ; preds = %26
  br label %28

28:                                               ; preds = %27, %12, %2
  %29 = load i32, ptr %5, align 4
  call void @llvm.lifetime.end.p0(i64 4, ptr %5) #9
  ret i32 %29
}

; Function Attrs: inlinehint nounwind uwtable
define internal i64 @BoolGetDatum(i1 noundef zeroext %0) #5 {
  %2 = alloca i8, align 1
  %3 = zext i1 %0 to i8
  store i8 %3, ptr %2, align 1
  %4 = load i8, ptr %2, align 1, !range !12, !noundef !13
  %5 = trunc i8 %4 to i1
  %6 = select i1 %5, i32 1, i32 0
  %7 = sext i32 %6 to i64
  ret i64 %7
}

; Function Attrs: nounwind uwtable
define internal i32 @convert_table_name(ptr noundef %0) #0 {
  %2 = alloca ptr, align 8
  %3 = alloca ptr, align 8
  store ptr %0, ptr %2, align 8
  call void @llvm.lifetime.start.p0(i64 8, ptr %3) #9
  %4 = load ptr, ptr %2, align 8
  %5 = call ptr @textToQualifiedNameList(ptr noundef %4)
  %6 = call ptr @makeRangeVarFromNameList(ptr noundef %5)
  store ptr %6, ptr %3, align 8
  %7 = load ptr, ptr %3, align 8
  %8 = call i32 @RangeVarGetRelidExtended(ptr noundef %7, i32 noundef 0, i32 noundef 0, ptr noundef null, ptr noundef null)
  call void @llvm.lifetime.end.p0(i64 8, ptr %3) #9
  ret i32 %8
}

; Function Attrs: nounwind uwtable
define internal i64 @convert_sequence_priv_string(ptr noundef %0) #0 {
  %2 = alloca ptr, align 8
  store ptr %0, ptr %2, align 8
  %3 = load ptr, ptr %2, align 8
  %4 = call i64 @convert_any_priv_string(ptr noundef %3, ptr noundef @convert_sequence_priv_string.sequence_priv_map)
  ret i64 %4
}

; Function Attrs: nounwind uwtable
define dso_local i32 @get_role_oid_or_public(ptr noundef %0) #0 {
  %2 = alloca i32, align 4
  %3 = alloca ptr, align 8
  store ptr %0, ptr %3, align 8
  %4 = load ptr, ptr %3, align 8
  %5 = call i32 @strcmp(ptr noundef %4, ptr noundef @.str.32) #11
  %6 = icmp eq i32 %5, 0
  br i1 %6, label %7, label %8

7:                                                ; preds = %1
  store i32 0, ptr %2, align 4
  br label %11

8:                                                ; preds = %1
  %9 = load ptr, ptr %3, align 8
  %10 = call i32 @get_role_oid(ptr noundef %9, i1 noundef zeroext false)
  store i32 %10, ptr %2, align 4
  br label %11

11:                                               ; preds = %8, %7
  %12 = load i32, ptr %2, align 4
  ret i32 %12
}

; Function Attrs: inlinehint nounwind uwtable
define internal ptr @DatumGetPointer(i64 noundef %0) #5 {
  %2 = alloca i64, align 8
  store i64 %0, ptr %2, align 8
  %3 = load i64, ptr %2, align 8
  %4 = inttoptr i64 %3 to ptr
  ret ptr %4
}

; Function Attrs: inlinehint nounwind uwtable
define internal ptr @DatumGetName(i64 noundef %0) #5 {
  %2 = alloca i64, align 8
  store i64 %0, ptr %2, align 8
  %3 = load i64, ptr %2, align 8
  %4 = call ptr @DatumGetPointer(i64 noundef %3)
  ret ptr %4
}

; Function Attrs: nounwind uwtable
define dso_local i64 @has_sequence_privilege_name_name(ptr noundef %0) #0 {
  %2 = alloca ptr, align 8
  %3 = alloca ptr, align 8
  %4 = alloca ptr, align 8
  %5 = alloca ptr, align 8
  %6 = alloca i32, align 4
  %7 = alloca i32, align 4
  %8 = alloca i64, align 8
  %9 = alloca i32, align 4
  store ptr %0, ptr %2, align 8
  call void @llvm.lifetime.start.p0(i64 8, ptr %3) #9
  %10 = load ptr, ptr %2, align 8
  %11 = getelementptr inbounds nuw %struct.FunctionCallInfoBaseData, ptr %10, i32 0, i32 6
  %12 = getelementptr inbounds [0 x %struct.NullableDatum], ptr %11, i64 0, i64 0
  %13 = getelementptr inbounds nuw %struct.NullableDatum, ptr %12, i32 0, i32 0
  %14 = load i64, ptr %13, align 8
  %15 = call ptr @DatumGetName(i64 noundef %14)
  store ptr %15, ptr %3, align 8
  call void @llvm.lifetime.start.p0(i64 8, ptr %4) #9
  %16 = load ptr, ptr %2, align 8
  %17 = getelementptr inbounds nuw %struct.FunctionCallInfoBaseData, ptr %16, i32 0, i32 6
  %18 = getelementptr inbounds [0 x %struct.NullableDatum], ptr %17, i64 0, i64 1
  %19 = getelementptr inbounds nuw %struct.NullableDatum, ptr %18, i32 0, i32 0
  %20 = load i64, ptr %19, align 8
  %21 = call ptr @DatumGetPointer(i64 noundef %20)
  %22 = call ptr @pg_detoast_datum_packed(ptr noundef %21)
  store ptr %22, ptr %4, align 8
  call void @llvm.lifetime.start.p0(i64 8, ptr %5) #9
  %23 = load ptr, ptr %2, align 8
  %24 = getelementptr inbounds nuw %struct.FunctionCallInfoBaseData, ptr %23, i32 0, i32 6
  %25 = getelementptr inbounds [0 x %struct.NullableDatum], ptr %24, i64 0, i64 2
  %26 = getelementptr inbounds nuw %struct.NullableDatum, ptr %25, i32 0, i32 0
  %27 = load i64, ptr %26, align 8
  %28 = call ptr @DatumGetPointer(i64 noundef %27)
  %29 = call ptr @pg_detoast_datum_packed(ptr noundef %28)
  store ptr %29, ptr %5, align 8
  call void @llvm.lifetime.start.p0(i64 4, ptr %6) #9
  call void @llvm.lifetime.start.p0(i64 4, ptr %7) #9
  call void @llvm.lifetime.start.p0(i64 8, ptr %8) #9
  call void @llvm.lifetime.start.p0(i64 4, ptr %9) #9
  %30 = load ptr, ptr %3, align 8
  %31 = getelementptr inbounds nuw %struct.nameData, ptr %30, i32 0, i32 0
  %32 = getelementptr inbounds [64 x i8], ptr %31, i64 0, i64 0
  %33 = call i32 @get_role_oid_or_public(ptr noundef %32)
  store i32 %33, ptr %6, align 4
  %34 = load ptr, ptr %5, align 8
  %35 = call i64 @convert_sequence_priv_string(ptr noundef %34)
  store i64 %35, ptr %8, align 8
  %36 = load ptr, ptr %4, align 8
  %37 = call i32 @convert_table_name(ptr noundef %36)
  store i32 %37, ptr %7, align 4
  %38 = load i32, ptr %7, align 4
  %39 = call signext i8 @get_rel_relkind(i32 noundef %38)
  %40 = sext i8 %39 to i32
  %41 = icmp ne i32 %40, 83
  br i1 %41, label %42, label %56

42:                                               ; preds = %1
  br label %43

43:                                               ; preds = %42
  br i1 true, label %44, label %46

44:                                               ; preds = %43
  %45 = call zeroext i1 @errstart_cold(i32 noundef 21, ptr noundef null) #10
  br i1 %45, label %48, label %53

46:                                               ; preds = %43
  %47 = call zeroext i1 @errstart(i32 noundef 21, ptr noundef null)
  br i1 %47, label %48, label %53

48:                                               ; preds = %46, %44
  %49 = call i32 @errcode(i32 noundef 151027844)
  %50 = load ptr, ptr %4, align 8
  %51 = call ptr @text_to_cstring(ptr noundef %50)
  %52 = call i32 (ptr, ...) @errmsg(ptr noundef @.str.29, ptr noundef %51)
  call void @errfinish(ptr noundef @.str.1, i32 noundef 2106, ptr noundef @__func__.has_sequence_privilege_name_name)
  br label %53

53:                                               ; preds = %48, %46, %44
  unreachable

54:                                               ; No predecessors!
  br label %55

55:                                               ; preds = %54
  br label %56

56:                                               ; preds = %55, %1
  %57 = load i32, ptr %7, align 4
  %58 = load i32, ptr %6, align 4
  %59 = load i64, ptr %8, align 8
  %60 = call i32 @pg_class_aclcheck(i32 noundef %57, i32 noundef %58, i64 noundef %59)
  store i32 %60, ptr %9, align 4
  %61 = load i32, ptr %9, align 4
  %62 = icmp eq i32 %61, 0
  %63 = call i64 @BoolGetDatum(i1 noundef zeroext %62)
  call void @llvm.lifetime.end.p0(i64 4, ptr %9) #9
  call void @llvm.lifetime.end.p0(i64 8, ptr %8) #9
  call void @llvm.lifetime.end.p0(i64 4, ptr %7) #9
  call void @llvm.lifetime.end.p0(i64 4, ptr %6) #9
  call void @llvm.lifetime.end.p0(i64 8, ptr %5) #9
  call void @llvm.lifetime.end.p0(i64 8, ptr %4) #9
  call void @llvm.lifetime.end.p0(i64 8, ptr %3) #9
  ret i64 %63
}